target datalayout = "e-m:e-p270:32:32-p271:32:32-p272:64:64-i64:64-i128:128-f80:128-n8:16:32:64-S128"
target triple = "x86_64-pc-linux-gnu"

@__const.aes_cbc_oneshot_test.msg = private unnamed_addr constant [24 x i8] c"now is the time for all ", align 16
@__const.aes_cbc_oneshot_test.key = private unnamed_addr constant [20 x i8] c"0123456789abcdef   \00", align 16
@__const.aes_cbc_oneshot_test.iv = private unnamed_addr constant [20 x i8] c"1234567890abcdef   \00", align 16

; Function Attrs: nounwind uwtable
define internal i32 @aes_cbc_oneshot_test() #0 {
  %1 = alloca i32, align 4
  %2 = alloca [16 x i8], align 16
  %3 = alloca [16 x i8], align 16
  %4 = alloca i32, align 4
  %5 = alloca [24 x i8], align 16
  %6 = alloca [20 x i8], align 16
  %7 = alloca [20 x i8], align 16
  %8 = alloca i32, align 4
  call void @llvm.lifetime.start.p0(i64 16, ptr %2) #10
  call void @llvm.lifetime.start.p0(i64 16, ptr %3) #10
  call void @llvm.lifetime.start.p0(i64 4, ptr %4) #10
  call void @llvm.lifetime.start.p0(i64 24, ptr %5) #10
  call void @llvm.memcpy.p0.p0.i64(ptr align 16 %5, ptr align 16 @__const.aes_cbc_oneshot_test.msg, i64 24, i1 false)
  call void @llvm.lifetime.start.p0(i64 20, ptr %6) #10
  call void @llvm.memcpy.p0.p0.i64(ptr align 16 %6, ptr align 16 @__const.aes_cbc_oneshot_test.key, i64 20, i1 false)
  call void @llvm.lifetime.start.p0(i64 20, ptr %7) #10
  call void @llvm.memcpy.p0.p0.i64(ptr align 16 %7, ptr align 16 @__const.aes_cbc_oneshot_test.iv, i64 20, i1 false)
  %9 = getelementptr inbounds [16 x i8], ptr %2, i64 0, i64 0
  call void @llvm.memset.p0.i64(ptr align 16 %9, i8 0, i64 16, i1 false)
  %10 = getelementptr inbounds [16 x i8], ptr %3, i64 0, i64 0
  call void @llvm.memset.p0.i64(ptr align 16 %10, i8 0, i64 16, i1 false)
  %11 = getelementptr inbounds [16 x i8], ptr %2, i64 0, i64 0
  %12 = getelementptr inbounds [24 x i8], ptr %5, i64 0, i64 0
  %13 = getelementptr inbounds [20 x i8], ptr %6, i64 0, i64 0
  %14 = call i32 @wc_AesCbcEncryptWithKey(ptr noundef %11, ptr noundef %12, i32 noundef 16, ptr noundef %13, i32 noundef 17, ptr noundef null)
  store i32 %14, ptr %4, align 4, !tbaa !14
  %15 = load i32, ptr %4, align 4, !tbaa !14
  %16 = icmp ne i32 %15, -173
  br i1 %16, label %17, label %29

17:                                               ; preds = %0
  %18 = load i32, ptr %4, align 4, !tbaa !14
  %19 = sub nsw i32 0, %18
  %20 = zext i32 %19 to i64
  %21 = and i64 %20, 2047
  %22 = trunc i64 %21 to i32
  %23 = sext i32 %22 to i64
  %24 = mul nsw i64 %23, 100000
  %25 = add nsw i64 13174, %24
  %26 = add nsw i64 %25, 536870912
  %27 = sub nsw i64 0, %26
  %28 = trunc i64 %27 to i32
  store i32 %28, ptr %1, align 4
  store i32 1, ptr %8, align 4
  br label %95

29:                                               ; preds = %0
  %30 = getelementptr inbounds [16 x i8], ptr %3, i64 0, i64 0
  %31 = getelementptr inbounds [16 x i8], ptr %2, i64 0, i64 0
  %32 = getelementptr inbounds [20 x i8], ptr %6, i64 0, i64 0
  %33 = call i32 @wc_AesCbcDecryptWithKey(ptr noundef %30, ptr noundef %31, i32 noundef 16, ptr noundef %32, i32 noundef 17, ptr noundef null)
  store i32 %33, ptr %4, align 4, !tbaa !14
  %34 = load i32, ptr %4, align 4, !tbaa !14
  %35 = icmp ne i32 %34, -173
  br i1 %35, label %36, label %48

36:                                               ; preds = %29
  %37 = load i32, ptr %4, align 4, !tbaa !14
  %38 = sub nsw i32 0, %37
  %39 = zext i32 %38 to i64
  %40 = and i64 %39, 2047
  %41 = trunc i64 %40 to i32
  %42 = sext i32 %41 to i64
  %43 = mul nsw i64 %42, 100000
  %44 = add nsw i64 13178, %43
  %45 = add nsw i64 %44, 536870912
  %46 = sub nsw i64 0, %45
  %47 = trunc i64 %46 to i32
  store i32 %47, ptr %1, align 4
  store i32 1, ptr %8, align 4
  br label %95

48:                                               ; preds = %29
  %49 = getelementptr inbounds [16 x i8], ptr %2, i64 0, i64 0
  %50 = getelementptr inbounds [24 x i8], ptr %5, i64 0, i64 0
  %51 = getelementptr inbounds [20 x i8], ptr %6, i64 0, i64 0
  %52 = getelementptr inbounds [20 x i8], ptr %7, i64 0, i64 0
  %53 = call i32 @wc_AesCbcEncryptWithKey(ptr noundef %49, ptr noundef %50, i32 noundef 16, ptr noundef %51, i32 noundef 16, ptr noundef %52)
  store i32 %53, ptr %4, align 4, !tbaa !14
  %54 = load i32, ptr %4, align 4, !tbaa !14
  %55 = icmp ne i32 %54, 0
  br i1 %55, label %56, label %68

56:                                               ; preds = %48
  %57 = load i32, ptr %4, align 4, !tbaa !14
  %58 = sub nsw i32 0, %57
  %59 = zext i32 %58 to i64
  %60 = and i64 %59, 2047
  %61 = trunc i64 %60 to i32
  %62 = sext i32 %61 to i64
  %63 = mul nsw i64 %62, 100000
  %64 = add nsw i64 13184, %63
  %65 = add nsw i64 %64, 536870912
  %66 = sub nsw i64 0, %65
  %67 = trunc i64 %66 to i32
  store i32 %67, ptr %1, align 4
  store i32 1, ptr %8, align 4
  br label %95

68:                                               ; preds = %48
  %69 = getelementptr inbounds [16 x i8], ptr %3, i64 0, i64 0
  %70 = getelementptr inbounds [16 x i8], ptr %2, i64 0, i64 0
  %71 = getelementptr inbounds [20 x i8], ptr %6, i64 0, i64 0
  %72 = getelementptr inbounds [20 x i8], ptr %7, i64 0, i64 0
  %73 = call i32 @wc_AesCbcDecryptWithKey(ptr noundef %69, ptr noundef %70, i32 noundef 16, ptr noundef %71, i32 noundef 16, ptr noundef %72)
  store i32 %73, ptr %4, align 4, !tbaa !14
  %74 = load i32, ptr %4, align 4, !tbaa !14
  %75 = icmp ne i32 %74, 0
  br i1 %75, label %76, label %88

76:                                               ; preds = %68
  %77 = load i32, ptr %4, align 4, !tbaa !14
  %78 = sub nsw i32 0, %77
  %79 = zext i32 %78 to i64
  %80 = and i64 %79, 2047
  %81 = trunc i64 %80 to i32
  %82 = sext i32 %81 to i64
  %83 = mul nsw i64 %82, 100000
  %84 = add nsw i64 13189, %83
  %85 = add nsw i64 %84, 536870912
  %86 = sub nsw i64 0, %85
  %87 = trunc i64 %86 to i32
  store i32 %87, ptr %1, align 4
  store i32 1, ptr %8, align 4
  br label %95

88:                                               ; preds = %68
  %89 = getelementptr inbounds [16 x i8], ptr %3, i64 0, i64 0
  %90 = getelementptr inbounds [24 x i8], ptr %5, i64 0, i64 0
  %91 = call i32 @memcmp(ptr noundef %89, ptr noundef %90, i64 noundef 16) #11
  %92 = icmp ne i32 %91, 0
  br i1 %92, label %93, label %94

93:                                               ; preds = %88
  store i32 -13191, ptr %1, align 4
  store i32 1, ptr %8, align 4
  br label %95

94:                                               ; preds = %88
  store i32 0, ptr %1, align 4
  store i32 1, ptr %8, align 4
  br label %95

95:                                               ; preds = %94, %93, %76, %56, %36, %17
  call void @llvm.lifetime.end.p0(i64 20, ptr %7) #10
  call void @llvm.lifetime.end.p0(i64 20, ptr %6) #10
  call void @llvm.lifetime.end.p0(i64 24, ptr %5) #10
  call void @llvm.lifetime.end.p0(i64 4, ptr %4) #10
  call void @llvm.lifetime.end.p0(i64 16, ptr %3) #10
  call void @llvm.lifetime.end.p0(i64 16, ptr %2) #10
  %96 = load i32, ptr %1, align 4
  ret i32 %96
}