; Function Attrs: nounwind uwtable
define internal fastcc void @aes_cbc_oneshot_test() unnamed_addr #0 {
  %1 = alloca [16 x i8], align 16
  %2 = alloca [16 x i8], align 16
  %3 = alloca [24 x i8], align 16
  %4 = alloca [20 x i8], align 16
  %5 = alloca [20 x i8], align 16
  call void @llvm.lifetime.start.p0(i64 16, ptr nonnull %1) #19
  call void @llvm.lifetime.start.p0(i64 16, ptr nonnull %2) #19
  call void @llvm.lifetime.start.p0(i64 24, ptr nonnull %3) #19
  call void @llvm.memcpy.p0.p0.i64(ptr noundef nonnull align 16 dereferenceable(24) %3, ptr noundef nonnull align 16 dereferenceable(24) @__const.aes_cbc_oneshot_test.msg, i64 24, i1 false)
  call void @llvm.lifetime.start.p0(i64 20, ptr nonnull %4) #19
  call void @llvm.memcpy.p0.p0.i64(ptr noundef nonnull align 16 dereferenceable(20) %4, ptr noundef nonnull align 16 dereferenceable(20) @__const.aes_cbc_oneshot_test.key, i64 20, i1 false)
  call void @llvm.lifetime.start.p0(i64 20, ptr nonnull %5) #19
  call void @llvm.memcpy.p0.p0.i64(ptr noundef nonnull align 16 dereferenceable(20) %5, ptr noundef nonnull align 16 dereferenceable(20) @__const.aes_cbc_oneshot_test.iv, i64 20, i1 false)
  call void @llvm.memset.p0.i64(ptr noundef nonnull align 16 dereferenceable(16) %1, i8 0, i64 16, i1 false)
  call void @llvm.memset.p0.i64(ptr noundef nonnull align 16 dereferenceable(16) %2, i8 0, i64 16, i1 false)
  %6 = call i32 @wc_AesCbcEncryptWithKey(ptr noundef nonnull %1, ptr noundef nonnull %3, i32 noundef 16, ptr noundef nonnull %4, i32 noundef 17, ptr noundef null) #19
  %.not = icmp eq i32 %6, -173
  br i1 %.not, label %7, label %13

7:                                                ; preds = %0
  %8 = call i32 @wc_AesCbcDecryptWithKey(ptr noundef nonnull %2, ptr noundef nonnull %1, i32 noundef 16, ptr noundef nonnull %4, i32 noundef 17, ptr noundef null) #19
  %.not13 = icmp eq i32 %8, -173
  br i1 %.not13, label %9, label %13

9:                                                ; preds = %7
  %10 = call i32 @wc_AesCbcEncryptWithKey(ptr noundef nonnull %1, ptr noundef nonnull %3, i32 noundef 16, ptr noundef nonnull %4, i32 noundef 16, ptr noundef nonnull %5) #19
  %.not14 = icmp eq i32 %10, 0
  br i1 %.not14, label %11, label %13

11:                                               ; preds = %9
  %12 = call i32 @wc_AesCbcDecryptWithKey(ptr noundef nonnull %2, ptr noundef nonnull %1, i32 noundef 16, ptr noundef nonnull %4, i32 noundef 16, ptr noundef nonnull %5) #19
  br label %13

13:                                               ; preds = %11, %9, %7, %0
  call void @llvm.lifetime.end.p0(i64 20, ptr nonnull %5) #19
  call void @llvm.lifetime.end.p0(i64 20, ptr nonnull %4) #19
  call void @llvm.lifetime.end.p0(i64 24, ptr nonnull %3) #19
  call void @llvm.lifetime.end.p0(i64 16, ptr nonnull %2) #19
  call void @llvm.lifetime.end.p0(i64 16, ptr nonnull %1) #19
  ret void
}